Certificate:
    Data:
        Version: 3 (0x2)
        Serial Number: 1 (0x1)
    Signature Algorithm: sha256WithRSAEncryption
        Issuer: O=Example DSG Inc. 1.0, OU=Example DSG Inc. 1.0 Root CA, CN=Example DSG Inc. 1.0 Root CA
        Validity
            Not Before: Sep  3 23:00:12 2016 GMT
            Not After : Sep  3 23:00:12 2026 GMT
        Subject: O=Example DSG Inc. 1.0, OU=Example DSG Inc. 1.0 Root CA, CN=Example DSG Inc. 1.0 Root CA
        Subject Public Key Info:
            Public Key Algorithm: rsaEncryption
                Public-Key: (2048 bit)
                Modulus:
                    00:eb:c3:b3:38:aa:61:0f:0c:dc:5d:df:b6:07:7e:
                    01:5b:14:90:0e:d2:d2:e6:66:ec:68:89:ac:7f:cc:
                    aa:ff:5c:02:73:ce:45:bd:c8:a8:d1:99:e0:86:20:
                    86:e0:88:43:ca:82:1c:60:c7:97:3b:f2:73:c8:fa:
                    2b:b1:2a:13:2b:66:1b:e3:a0:c9:e1:68:89:73:fc:
                    19:fc:ae:5c:df:c4:75:50:cb:f2:68:7f:30:12:3c:
                    86:8c:ed:b3:b6:7f:bc:fe:1e:7b:2e:ab:bb:87:dd:
                    29:89:8f:a9:7f:72:1b:2a:7f:77:cc:a4:75:a8:57:
                    cc:13:8c:e6:7e:54:f7:e4:b2:03:db:36:50:8b:b4:
                    28:27:fa:ff:87:a0:66:ba:17:7b:4c:c5:5e:cb:85:
                    ca:8a:55:b7:06:98:41:30:11:f6:28:83:c6:2d:b7:
                    c7:08:51:61:01:58:f6:9a:72:cc:e9:a6:f4:40:03:
                    47:6d:f3:ee:fa:70:fa:66:47:a3:2f:5b:84:32:10:
                    26:ba:d1:74:cc:92:97:4c:77:4d:22:eb:87:f6:b5:
                    31:70:e1:4a:e3:5d:24:a2:44:63:14:9e:96:68:75:
                    a5:25:9a:7a:5e:ae:07:a5:d5:03:06:c7:45:26:9e:
                    a3:38:c5:ea:80:4c:63:4b:6f:85:04:38:14:bd:b6:
                    24:e1
                Exponent: 65537 (0x10001)
        X509v3 extensions:
            X509v3 Key Usage: critical
                Certificate Sign, CRL Sign
            X509v3 Basic Constraints: critical
                CA:TRUE
            X509v3 Subject Key Identifier: 
                62:27:D3:88:EF:30:85:12:88:25:E1:7A:3C:29:81:51:F4:CE:3F:AE
            X509v3 Authority Key Identifier: 
                keyid:62:27:D3:88:EF:30:85:12:88:25:E1:7A:3C:29:81:51:F4:CE:3F:AE

    Signature Algorithm: sha256WithRSAEncryption
         5a:b3:60:3b:0b:a1:43:d8:e5:2e:bf:3a:f1:03:d7:31:3f:dd:
         d2:76:69:46:df:08:4e:a4:e1:2b:b3:b9:53:81:94:f8:18:47:
         00:f3:e7:8e:50:fb:32:a9:be:61:89:ee:4c:26:70:51:2a:1b:
         30:74:4c:66:24:50:8d:4c:4c:2c:5d:8f:d1:28:ab:19:0b:33:
         da:da:2c:6f:45:ff:d2:0b:4a:f0:e7:d1:b1:8e:80:10:84:23:
         38:16:4d:2e:73:6c:63:3e:f4:af:4c:17:75:16:00:69:56:fb:
         0e:18:98:64:76:6a:ad:6b:09:a3:15:7b:72:f1:b4:80:6a:c2:
         30:60:7c:3f:5a:38:0c:db:81:a4:2f:a8:b7:42:67:47:b1:5b:
         d7:8c:a1:4f:e0:1c:d1:ff:4c:19:3f:c3:c5:86:66:4d:b3:3b:
         1c:e5:57:85:5d:0d:2b:34:22:96:67:f2:0d:ba:7e:cb:e0:db:
         29:f1:98:47:86:91:0d:a7:d2:38:b8:4e:3c:3e:04:72:59:29:
         96:95:06:9d:07:fb:e6:e0:b7:57:41:e4:54:c4:6d:13:34:f9:
         cd:36:07:0c:14:c1:91:f7:e7:19:75:f0:b7:89:9e:9d:37:84:
         f9:4a:84:bf:e4:36:b4:13:cf:55:f8:c1:10:39:30:84:ad:8c:
         4d:62:9d:4e
-----BEGIN CERTIFICATE-----
MIIDuDCCAqCgAwIBAgIBATANBgkqhkiG9w0BAQsFADBtMR0wGwYDVQQKDBRFeGFt
cGxlIERTRyBJbmMuIDEuMDElMCMGA1UECwwcRXhhbXBsZSBEU0cgSW5jLiAxLjAg
Um9vdCBDQTElMCMGA1UEAwwcRXhhbXBsZSBEU0cgSW5jLiAxLjAgUm9vdCBDQTAe
Fw0xNjA5MDMyMzAwMTJaFw0yNjA5MDMyMzAwMTJaMG0xHTAbBgNVBAoMFEV4YW1w
bGUgRFNHIEluYy4gMS4wMSUwIwYDVQQLDBxFeGFtcGxlIERTRyBJbmMuIDEuMCBS
b290IENBMSUwIwYDVQQDDBxFeGFtcGxlIERTRyBJbmMuIDEuMCBSb290IENBMIIB
IjANBgkqhkiG9w0BAQEFAAOCAQ8AMIIBCgKCAQEA68OzOKphDwzcXd+2B34BWxSQ
DtLS5mbsaImsf8yq/1wCc85Fvcio0ZnghiCG4IhDyoIcYMeXO/JzyPorsSoTK2Yb
46DJ4WiJc/wZ/K5c38R1UMvyaH8wEjyGjO2ztn+8/h57Lqu7h90piY+pf3IbKn93
zKR1qFfME4zmflT35LID2zZQi7QoJ/r/h6Bmuhd7TMVey4XKilW3BphBMBH2KIPG
LbfHCFFhAVj2mnLM6ab0QANHbfPu+nD6ZkejL1uEMhAmutF0zJKXTHdNIuuH9rUx
cOFK410kokRjFJ6WaHWlJZp6Xq4HpdUDBsdFJp6jOMXqgExjS2+FBDgUvbYk4QID
AQABo2MwYTAOBgNVHQ8BAf8EBAMCAQYwDwYDVR0TAQH/BAUwAwEB/zAdBgNVHQ4E
FgQUYifTiO8whRKIJeF6PCmBUfTOP64wHwYDVR0jBBgwFoAUYifTiO8whRKIJeF6
PCmBUfTOP64wDQYJKoZIhvcNAQELBQADggEBAFqzYDsLoUPY5S6/OvED1zE/3dJ2
aUbfCE6k4SuzuVOBlPgYRwDz545Q+zKpvmGJ7kwmcFEqGzB0TGYkUI1MTCxdj9Eo
qxkLM9raLG9F/9ILSvDn0bGOgBCEIzgWTS5zbGM+9K9MF3UWAGlW+w4YmGR2aq1r
CaMVe3LxtIBqwjBgfD9aOAzbgaQvqLdCZ0exW9eMoU/gHNH/TBk/w8WGZk2zOxzl
V4VdDSs0IpZn8g26fsvg2ynxmEeGkQ2n0ji4Tjw+BHJZKZaVBp0H++bgt1dB5FTE
bRM0+c02BwwUwZH35xl18LeJnp03hPlKhL/kNrQTz1X4wRA5MIStjE1inU4=
-----END CERTIFICATE-----
