Certificate:
    Data:
        Version: 3 (0x2)
        Serial Number: 2 (0x2)
    Signature Algorithm: sha256WithRSAEncryption
        Issuer: O=Example DSG Inc. 1.0, OU=Example DSG Inc. 1.0 Root CA, CN=Example DSG Inc. 1.0 Root CA
        Validity
            Not Before: Sep  3 23:00:13 2016 GMT
            Not After : Sep  3 23:00:13 2026 GMT
        Subject: O=Example DSG Inc. 1.0, OU=Example DSG Inc. 1.0 Signing CA, CN=Example DSG Inc. 1.0 Signing CA
        Subject Public Key Info:
            Public Key Algorithm: rsaEncryption
                Public-Key: (2048 bit)
                Modulus:
                    00:ba:92:75:b1:fa:71:6d:42:a0:4b:c6:09:80:79:
                    4e:fe:e5:62:98:f3:84:6b:a0:33:24:47:fc:e2:7b:
                    91:26:e5:f2:68:34:60:89:f3:60:ae:62:3f:4f:2a:
                    38:97:35:08:29:c4:c6:4c:cd:10:ca:88:02:b1:f1:
                    1f:a9:4f:e1:56:23:29:5a:1c:ca:97:10:56:0a:29:
                    83:fb:c8:41:03:3e:3e:f0:e4:ce:4f:3e:63:2f:67:
                    f8:15:06:1f:ed:4d:18:4a:48:d5:af:4a:b5:8b:ad:
                    d8:16:50:39:13:11:17:a7:29:63:9d:16:c9:e6:96:
                    97:c7:bd:33:67:04:ba:7e:79:9a:dd:d2:ac:aa:3a:
                    a3:16:fd:95:51:35:ae:a4:cc:e0:a5:47:6a:c8:76:
                    78:5e:1a:cf:45:a8:af:91:00:7d:8c:87:27:a7:d8:
                    5b:7b:45:3f:37:98:b6:c8:3b:c7:91:cf:f8:51:10:
                    83:24:ed:b2:e8:7d:50:4e:d6:35:3d:16:0d:fd:4e:
                    15:9a:eb:6a:6d:4b:6a:1f:4d:d3:5b:65:f4:1b:7f:
                    9c:69:f0:d6:ce:ee:d7:d3:a8:f7:d6:0d:59:be:30:
                    1c:f7:72:9b:d2:ff:5b:15:01:f9:cc:3a:58:91:a2:
                    38:e1:b7:2a:bd:b6:6c:63:6e:79:91:5a:1e:7c:70:
                    0d:79
                Exponent: 65537 (0x10001)
        X509v3 extensions:
            X509v3 Key Usage: critical
                Certificate Sign, CRL Sign
            X509v3 Basic Constraints: critical
                CA:TRUE, pathlen:0
            X509v3 Subject Key Identifier: 
                F5:93:5A:69:05:EB:DE:31:43:20:87:58:E8:BC:2F:8E:5C:54:5A:8E
            X509v3 Authority Key Identifier: 
                keyid:62:27:D3:88:EF:30:85:12:88:25:E1:7A:3C:29:81:51:F4:CE:3F:AE

    Signature Algorithm: sha256WithRSAEncryption
         10:f8:43:77:05:90:f4:ba:6f:a0:d6:63:95:5c:33:85:be:10:
         d2:d7:42:6b:eb:ff:f2:a9:69:71:a7:eb:aa:c8:bd:1b:f9:9d:
         0b:f9:95:d0:4a:39:ed:e0:f2:eb:7c:84:03:28:48:7e:f0:b5:
         da:30:ba:fd:51:77:42:75:8e:8b:cd:ee:82:b8:cb:2f:8d:fa:
         02:80:ed:c5:c7:49:73:8f:c3:18:70:a5:3c:d2:fc:c3:02:74:
         01:5c:ac:40:1c:3c:ed:f1:a4:77:ae:21:17:17:d4:59:3e:0f:
         c8:7d:86:ab:8d:9d:5e:dd:6a:bf:6c:a5:0d:a7:8c:b5:95:5e:
         4c:b8:bb:fe:60:c8:1e:9d:7e:fd:cc:38:95:56:3d:d5:5e:80:
         1f:34:3a:e5:28:bd:32:d3:38:f1:e4:76:f5:f9:26:b7:44:1f:
         64:b2:1f:e3:84:3c:a1:9d:83:44:76:64:b6:69:2b:7f:3e:33:
         3e:ca:9c:15:d1:25:45:27:47:7f:74:a3:e9:fa:49:38:5b:e6:
         fd:54:55:85:8c:62:cc:e3:ed:b4:5f:ac:6f:92:56:59:9a:f7:
         e1:ca:f1:72:2d:c1:5b:81:3f:4e:33:c1:45:58:71:72:ed:6a:
         08:15:cc:0a:49:d6:11:cf:e3:0e:c6:c1:b5:3a:60:84:f6:af:
         78:f4:31:01
-----BEGIN CERTIFICATE-----
MIIDwTCCAqmgAwIBAgIBAjANBgkqhkiG9w0BAQsFADBtMR0wGwYDVQQKDBRFeGFt
cGxlIERTRyBJbmMuIDEuMDElMCMGA1UECwwcRXhhbXBsZSBEU0cgSW5jLiAxLjAg
Um9vdCBDQTElMCMGA1UEAwwcRXhhbXBsZSBEU0cgSW5jLiAxLjAgUm9vdCBDQTAe
Fw0xNjA5MDMyMzAwMTNaFw0yNjA5MDMyMzAwMTNaMHMxHTAbBgNVBAoMFEV4YW1w
bGUgRFNHIEluYy4gMS4wMSgwJgYDVQQLDB9FeGFtcGxlIERTRyBJbmMuIDEuMCBT
aWduaW5nIENBMSgwJgYDVQQDDB9FeGFtcGxlIERTRyBJbmMuIDEuMCBTaWduaW5n
IENBMIIBIjANBgkqhkiG9w0BAQEFAAOCAQ8AMIIBCgKCAQEAupJ1sfpxbUKgS8YJ
gHlO/uVimPOEa6AzJEf84nuRJuXyaDRgifNgrmI/Tyo4lzUIKcTGTM0QyogCsfEf
qU/hViMpWhzKlxBWCimD+8hBAz4+8OTOTz5jL2f4FQYf7U0YSkjVr0q1i63YFlA5
ExEXpyljnRbJ5paXx70zZwS6fnma3dKsqjqjFv2VUTWupMzgpUdqyHZ4XhrPRaiv
kQB9jIcnp9hbe0U/N5i2yDvHkc/4URCDJO2y6H1QTtY1PRYN/U4VmutqbUtqH03T
W2X0G3+cafDWzu7X06j31g1ZvjAc93Kb0v9bFQH5zDpYkaI44bcqvbZsY255kVoe
fHANeQIDAQABo2YwZDAOBgNVHQ8BAf8EBAMCAQYwEgYDVR0TAQH/BAgwBgEB/wIB
ADAdBgNVHQ4EFgQU9ZNaaQXr3jFDIIdY6LwvjlxUWo4wHwYDVR0jBBgwFoAUYifT
iO8whRKIJeF6PCmBUfTOP64wDQYJKoZIhvcNAQELBQADggEBABD4Q3cFkPS6b6DW
Y5VcM4W+ENLXQmvr//KpaXGn66rIvRv5nQv5ldBKOe3g8ut8hAMoSH7wtdowuv1R
d0J1jovN7oK4yy+N+gKA7cXHSXOPwxhwpTzS/MMCdAFcrEAcPO3xpHeuIRcX1Fk+
D8h9hquNnV7dar9spQ2njLWVXky4u/5gyB6dfv3MOJVWPdVegB80OuUovTLTOPHk
dvX5JrdEH2SyH+OEPKGdg0R2ZLZpK38+Mz7KnBXRJUUnR390o+n6SThb5v1UVYWM
Yszj7bRfrG+SVlma9+HK8XItwVuBP04zwUVYcXLtaggVzApJ1hHP4w7GwbU6YIT2
r3j0MQE=
-----END CERTIFICATE-----
