Certificate:
    Data:
        Version: 3 (0x2)
        Serial Number: 1 (0x1)
    Signature Algorithm: sha256WithRSAEncryption
        Issuer: DC=com, DC=example, O=Example Com Inc., OU=Example Com Inc. Root CA, CN=Example Com Inc. Root CA
        Validity
            Not Before: Apr 26 15:31:14 2017 GMT
            Not After : Apr 26 15:31:14 2027 GMT
        Subject: DC=com, DC=example, O=Example Com Inc., OU=Example Com Inc. Root CA, CN=Example Com Inc. Root CA
        Subject Public Key Info:
            Public Key Algorithm: rsaEncryption
                Public-Key: (2048 bit)
                Modulus:
                    00:c6:2b:12:00:59:06:ce:be:4e:c8:2f:85:15:31:
                    e9:c8:48:ab:96:d9:cf:7f:2d:96:9d:6f:7a:9b:d2:
                    9e:e9:39:f8:ce:6a:b3:ca:e8:56:ce:eb:4c:4a:58:
                    3c:02:ec:cb:4f:cf:8c:5e:ba:bf:e4:20:5d:0a:ae:
                    98:c0:d6:65:47:0d:e7:fe:38:b1:03:31:29:36:5a:
                    08:d6:2f:d9:ae:ed:46:4c:86:3a:13:79:ec:91:e6:
                    89:74:cc:55:15:18:8f:39:d4:92:fe:3f:21:8c:ae:
                    81:17:9d:9f:84:30:0c:b1:40:ab:80:b0:c6:d9:55:
                    5e:18:77:f1:fc:58:81:0c:27:ad:43:0d:57:af:15:
                    c0:41:0e:08:20:b1:77:94:f6:4e:72:99:55:69:4d:
                    a9:2b:8b:7d:f4:2b:ca:af:bd:3b:b3:ca:6d:4c:54:
                    6c:09:45:c3:dc:61:24:bc:00:48:8e:9f:30:a5:71:
                    41:b5:03:41:d0:9a:0e:c6:74:a9:ce:18:4e:f7:7a:
                    93:9c:cc:d0:51:d6:b8:b9:79:d7:88:e7:ae:64:1b:
                    a7:f3:26:41:7f:94:74:09:43:32:a9:ab:4f:55:2f:
                    2d:45:90:ea:ee:a2:90:24:07:54:27:59:19:1d:24:
                    ad:0a:e3:47:84:f3:35:83:aa:31:ae:27:65:3d:48:
                    19:51
                Exponent: 65537 (0x10001)
        X509v3 extensions:
            X509v3 Key Usage: critical
                Certificate Sign, CRL Sign
            X509v3 Basic Constraints: critical
                CA:TRUE
            X509v3 Subject Key Identifier: 
                36:F2:29:62:30:0B:9B:9D:97:11:84:2C:3B:56:73:4A:F7:1B:0A:A6
            X509v3 Authority Key Identifier: 
                keyid:36:F2:29:62:30:0B:9B:9D:97:11:84:2C:3B:56:73:4A:F7:1B:0A:A6

    Signature Algorithm: sha256WithRSAEncryption
         91:77:04:bc:64:05:a8:b6:b4:45:65:19:ba:2c:1a:8b:48:72:
         95:44:f6:07:16:4e:9c:39:8e:4f:6d:d4:20:74:a7:dc:ba:1c:
         9b:38:a0:df:05:19:cd:45:5e:7f:39:91:7f:f7:4a:4b:c4:7f:
         4b:de:34:c7:89:33:73:0b:c0:32:0f:03:80:fb:bf:9c:e3:78:
         cf:4d:2a:04:9e:4b:80:a7:41:b4:4d:ce:2f:8b:a7:90:00:bc:
         f2:fe:11:a1:b0:c6:6b:d9:31:25:48:8a:b0:7d:b2:0f:19:36:
         1e:70:56:b4:54:e7:1a:c7:5b:04:15:bf:77:a9:fe:9b:a5:1f:
         fe:ad:9a:c8:b6:c9:c0:a8:8a:ec:ff:e1:ec:2f:8c:5b:a8:e4:
         8c:fa:4c:e1:8a:68:a8:d5:00:b1:ab:25:b0:16:d4:4c:33:51:
         60:bc:6f:15:10:2e:2f:3b:dc:f7:6f:3c:76:f0:62:19:ba:cb:
         69:96:7d:22:26:60:7d:1c:03:a7:16:43:77:ef:95:31:25:f9:
         28:1d:dc:bc:93:6e:97:ad:21:56:b0:51:af:1b:50:87:89:a4:
         be:43:9e:1f:3b:fb:2b:d5:46:ed:38:87:01:b2:5a:15:6f:90:
         a2:43:1c:76:f1:59:bb:f3:3f:72:5d:af:12:fc:88:54:e0:15:
         d7:b4:14:23
-----BEGIN CERTIFICATE-----
MIID/jCCAuagAwIBAgIBATANBgkqhkiG9w0BAQsFADCBjzETMBEGCgmSJomT8ixk
ARkWA2NvbTEXMBUGCgmSJomT8ixkARkWB2V4YW1wbGUxGTAXBgNVBAoMEEV4YW1w
bGUgQ29tIEluYy4xITAfBgNVBAsMGEV4YW1wbGUgQ29tIEluYy4gUm9vdCBDQTEh
MB8GA1UEAwwYRXhhbXBsZSBDb20gSW5jLiBSb290IENBMB4XDTE3MDQyNjE1MzEx
NFoXDTI3MDQyNjE1MzExNFowgY8xEzARBgoJkiaJk/IsZAEZFgNjb20xFzAVBgoJ
kiaJk/IsZAEZFgdleGFtcGxlMRkwFwYDVQQKDBBFeGFtcGxlIENvbSBJbmMuMSEw
HwYDVQQLDBhFeGFtcGxlIENvbSBJbmMuIFJvb3QgQ0ExITAfBgNVBAMMGEV4YW1w
bGUgQ29tIEluYy4gUm9vdCBDQTCCASIwDQYJKoZIhvcNAQEBBQADggEPADCCAQoC
ggEBAMYrEgBZBs6+TsgvhRUx6chIq5bZz38tlp1vepvSnuk5+M5qs8roVs7rTEpY
PALsy0/PjF66v+QgXQqumMDWZUcN5/44sQMxKTZaCNYv2a7tRkyGOhN57JHmiXTM
VRUYjznUkv4/IYyugRedn4QwDLFAq4CwxtlVXhh38fxYgQwnrUMNV68VwEEOCCCx
d5T2TnKZVWlNqSuLffQryq+9O7PKbUxUbAlFw9xhJLwASI6fMKVxQbUDQdCaDsZ0
qc4YTvd6k5zM0FHWuLl514jnrmQbp/MmQX+UdAlDMqmrT1UvLUWQ6u6ikCQHVCdZ
GR0krQrjR4TzNYOqMa4nZT1IGVECAwEAAaNjMGEwDgYDVR0PAQH/BAQDAgEGMA8G
A1UdEwEB/wQFMAMBAf8wHQYDVR0OBBYEFDbyKWIwC5udlxGELDtWc0r3GwqmMB8G
A1UdIwQYMBaAFDbyKWIwC5udlxGELDtWc0r3GwqmMA0GCSqGSIb3DQEBCwUAA4IB
AQCRdwS8ZAWotrRFZRm6LBqLSHKVRPYHFk6cOY5PbdQgdKfcuhybOKDfBRnNRV5/
OZF/90pLxH9L3jTHiTNzC8AyDwOA+7+c43jPTSoEnkuAp0G0Tc4vi6eQALzy/hGh
sMZr2TElSIqwfbIPGTYecFa0VOcax1sEFb93qf6bpR/+rZrItsnAqIrs/+HsL4xb
qOSM+kzhimio1QCxqyWwFtRMM1FgvG8VEC4vO9z3bzx28GIZustpln0iJmB9HAOn
FkN375UxJfkoHdy8k26XrSFWsFGvG1CHiaS+Q54fO/sr1UbtOIcBsloVb5CiQxx2
8Vm78z9yXa8S/IhU4BXXtBQj
-----END CERTIFICATE-----
