Certificate:
    Data:
        Version: 3 (0x2)
        Serial Number: 1 (0x1)
    Signature Algorithm: sha256WithRSAEncryption
        Issuer: DC=com, DC=example, O=Example Com Inc., OU=Example Com Inc. Root CA, CN=Example Com Inc. Root CA
        Validity
            Not Before: Jul 27 18:24:23 2017 GMT
            Not After : Jul 27 18:24:23 2027 GMT
        Subject: DC=com, DC=example, O=Example Com Inc., OU=Example Com Inc. Root CA, CN=Example Com Inc. Root CA
        Subject Public Key Info:
            Public Key Algorithm: rsaEncryption
                Public-Key: (2048 bit)
                Modulus:
                    00:e8:3e:bb:64:81:18:67:cf:56:15:59:9e:32:39:
                    55:dc:3e:f1:e0:db:c1:a1:78:93:a8:50:ef:76:d2:
                    40:e9:67:14:dc:6f:52:df:49:e5:ed:6c:33:b9:40:
                    11:8c:69:22:50:88:f3:b5:2c:28:fe:41:c7:46:bd:
                    58:e1:ac:c8:51:81:89:8b:f8:0b:87:96:dc:2e:26:
                    d4:78:a7:c1:73:38:90:3b:c5:a2:f7:ce:93:09:43:
                    61:f8:25:7f:fd:fe:9c:f3:2d:4d:81:f4:26:ac:c1:
                    1b:a1:3c:19:4f:37:77:a7:36:43:e4:32:91:bf:ab:
                    48:20:49:5f:83:8f:b7:e4:db:69:6b:70:f5:96:25:
                    08:f7:67:87:ac:8c:f5:c1:56:6d:a2:e9:a4:ba:8d:
                    3a:ce:46:22:54:c3:aa:ac:cd:f1:3b:0d:7c:9d:e3:
                    e4:80:3a:3b:7e:01:a1:e5:c6:eb:2e:11:14:6c:a5:
                    3b:01:42:8d:04:05:65:33:22:63:7b:89:13:78:80:
                    2d:4c:49:8c:a7:91:ea:37:ee:10:23:d5:63:cf:37:
                    0d:ae:65:02:54:26:bf:55:06:da:92:4b:25:a4:40:
                    cb:dc:eb:94:b3:2c:4e:5e:d4:98:68:ad:02:3f:c1:
                    78:cc:f0:3d:4e:59:7d:fc:b6:d2:30:9b:be:f6:d7:
                    15:fd
                Exponent: 65537 (0x10001)
        X509v3 extensions:
            X509v3 Key Usage: critical
                Certificate Sign, CRL Sign
            X509v3 Basic Constraints: critical
                CA:TRUE
            X509v3 Subject Key Identifier: 
                2B:F6:E4:25:96:B4:B6:6A:CD:E0:AD:30:E9:92:05:5F:1E:98:B6:25
            X509v3 Authority Key Identifier: 
                keyid:2B:F6:E4:25:96:B4:B6:6A:CD:E0:AD:30:E9:92:05:5F:1E:98:B6:25

    Signature Algorithm: sha256WithRSAEncryption
         1b:f2:13:59:be:c6:e4:ef:7e:3c:77:f2:7b:7a:6d:94:f8:ee:
         8c:37:2c:74:c0:86:85:14:91:8f:30:27:f1:77:57:31:5e:c5:
         35:53:de:5d:03:8f:d3:31:70:a7:be:b3:4a:e5:a9:20:0c:e2:
         11:45:66:a3:45:a3:65:da:c2:62:d0:15:1b:d7:1f:bd:d3:f5:
         73:01:67:8b:9c:44:22:68:0f:1d:aa:50:ec:c4:a7:09:39:c4:
         98:31:6b:8f:a2:7c:ea:fb:14:f7:9d:71:3a:73:bf:25:67:5f:
         15:09:ae:6c:b8:a4:b8:bb:ec:43:d1:2d:61:d7:d8:68:77:4c:
         9d:9b:c2:76:84:0f:3f:e5:dd:cf:17:05:d0:f8:04:2b:ed:9d:
         66:43:0e:fd:b8:0a:e7:fe:3f:56:27:65:01:a2:f7:57:40:ff:
         c4:1a:35:36:fa:c9:9e:17:de:bc:13:aa:76:85:57:81:06:7b:
         ea:a4:cd:76:e3:54:f1:39:f0:32:c7:4d:fc:8c:d8:6b:2c:aa:
         e6:98:50:bc:4b:0b:19:06:44:4a:2d:b9:cf:e1:65:1b:41:d2:
         eb:30:f5:f7:49:30:d9:d7:23:50:ea:8e:37:6d:fa:96:81:bb:
         1e:96:40:09:76:48:35:93:e2:a0:72:14:a5:2c:cf:2d:72:0c:
         1f:8c:90:d7
-----BEGIN CERTIFICATE-----
MIID/jCCAuagAwIBAgIBATANBgkqhkiG9w0BAQsFADCBjzETMBEGCgmSJomT8ixk
ARkWA2NvbTEXMBUGCgmSJomT8ixkARkWB2V4YW1wbGUxGTAXBgNVBAoMEEV4YW1w
bGUgQ29tIEluYy4xITAfBgNVBAsMGEV4YW1wbGUgQ29tIEluYy4gUm9vdCBDQTEh
MB8GA1UEAwwYRXhhbXBsZSBDb20gSW5jLiBSb290IENBMB4XDTE3MDcyNzE4MjQy
M1oXDTI3MDcyNzE4MjQyM1owgY8xEzARBgoJkiaJk/IsZAEZFgNjb20xFzAVBgoJ
kiaJk/IsZAEZFgdleGFtcGxlMRkwFwYDVQQKDBBFeGFtcGxlIENvbSBJbmMuMSEw
HwYDVQQLDBhFeGFtcGxlIENvbSBJbmMuIFJvb3QgQ0ExITAfBgNVBAMMGEV4YW1w
bGUgQ29tIEluYy4gUm9vdCBDQTCCASIwDQYJKoZIhvcNAQEBBQADggEPADCCAQoC
ggEBAOg+u2SBGGfPVhVZnjI5Vdw+8eDbwaF4k6hQ73bSQOlnFNxvUt9J5e1sM7lA
EYxpIlCI87UsKP5Bx0a9WOGsyFGBiYv4C4eW3C4m1HinwXM4kDvFovfOkwlDYfgl
f/3+nPMtTYH0JqzBG6E8GU83d6c2Q+Qykb+rSCBJX4OPt+TbaWtw9ZYlCPdnh6yM
9cFWbaLppLqNOs5GIlTDqqzN8TsNfJ3j5IA6O34BoeXG6y4RFGylOwFCjQQFZTMi
Y3uJE3iALUxJjKeR6jfuECPVY883Da5lAlQmv1UG2pJLJaRAy9zrlLMsTl7UmGit
Aj/BeMzwPU5Zffy20jCbvvbXFf0CAwEAAaNjMGEwDgYDVR0PAQH/BAQDAgEGMA8G
A1UdEwEB/wQFMAMBAf8wHQYDVR0OBBYEFCv25CWWtLZqzeCtMOmSBV8emLYlMB8G
A1UdIwQYMBaAFCv25CWWtLZqzeCtMOmSBV8emLYlMA0GCSqGSIb3DQEBCwUAA4IB
AQAb8hNZvsbk7348d/J7em2U+O6MNyx0wIaFFJGPMCfxd1cxXsU1U95dA4/TMXCn
vrNK5akgDOIRRWajRaNl2sJi0BUb1x+90/VzAWeLnEQiaA8dqlDsxKcJOcSYMWuP
onzq+xT3nXE6c78lZ18VCa5suKS4u+xD0S1h19hod0ydm8J2hA8/5d3PFwXQ+AQr
7Z1mQw79uArn/j9WJ2UBovdXQP/EGjU2+smeF968E6p2hVeBBnvqpM1241TxOfAy
x038jNhrLKrmmFC8SwsZBkRKLbnP4WUbQdLrMPX3STDZ1yNQ6o43bfqWgbselkAJ
dkg1k+KgchSlLM8tcgwfjJDX
-----END CERTIFICATE-----
