Certificate:
    Data:
        Version: 3 (0x2)
        Serial Number: 1 (0x1)
    Signature Algorithm: sha256WithRSAEncryption
        Issuer: DC=com, DC=example, O=Example Com Inc., OU=Example Com Inc. Root CA, CN=Example Com Inc. Root CA
        Validity
            Not Before: Feb 28 20:27:19 2017 GMT
            Not After : Feb 28 20:27:19 2027 GMT
        Subject: DC=com, DC=example, O=Example Com Inc., OU=Example Com Inc. Root CA, CN=Example Com Inc. Root CA
        Subject Public Key Info:
            Public Key Algorithm: rsaEncryption
                Public-Key: (2048 bit)
                Modulus:
                    00:b7:e6:1c:67:e2:db:d0:12:2a:ce:53:ac:37:32:
                    da:37:2c:3a:45:06:45:59:e7:28:86:91:80:23:f8:
                    1f:50:40:9d:f4:cd:e1:a1:e9:1a:a2:16:6b:47:53:
                    9a:67:41:d4:5e:94:a2:30:30:57:fc:e1:37:ae:1d:
                    09:af:42:11:81:9e:d3:ae:61:0d:8a:35:b8:c5:55:
                    41:b4:41:23:df:34:8d:c9:7a:e3:18:55:e3:7f:3b:
                    94:51:25:dd:a5:4d:53:42:84:79:f5:42:1c:c8:82:
                    b0:c4:c1:71:81:fa:9d:1f:fc:51:e4:57:4e:46:86:
                    e5:81:55:f3:9c:45:f3:3e:d9:bf:f1:33:3e:32:14:
                    f4:24:a8:ea:6e:6a:12:02:4f:ca:c9:62:67:42:cf:
                    62:ac:68:38:2a:f0:a6:cf:20:af:20:43:c9:9c:db:
                    e3:01:29:ba:85:51:f6:4a:d0:dc:7e:04:30:78:bf:
                    d0:9e:e3:f8:ad:23:a8:ae:48:6c:54:a0:e7:f9:b3:
                    b8:da:15:71:c0:3e:4e:3b:e0:c7:ca:d1:eb:00:5b:
                    f0:37:8f:7f:b2:32:4e:4b:0b:ce:23:c6:c7:79:27:
                    7d:47:fb:6c:d2:2b:e7:1e:24:92:ed:3b:ee:c2:b5:
                    55:0d:41:2e:41:3d:d6:aa:5d:97:91:bb:58:24:af:
                    da:03
                Exponent: 65537 (0x10001)
        X509v3 extensions:
            X509v3 Key Usage: critical
                Certificate Sign, CRL Sign
            X509v3 Basic Constraints: critical
                CA:TRUE
            X509v3 Subject Key Identifier: 
                03:DD:7F:F8:6E:32:61:7F:30:69:AD:F6:A2:EA:CF:00:95:0B:66:30
            X509v3 Authority Key Identifier: 
                keyid:03:DD:7F:F8:6E:32:61:7F:30:69:AD:F6:A2:EA:CF:00:95:0B:66:30

    Signature Algorithm: sha256WithRSAEncryption
         33:48:21:fa:90:38:96:9e:79:a5:a6:06:1b:fa:6d:ab:f9:d7:
         6e:51:e4:54:09:6b:ef:f5:b6:9e:8f:74:6f:a2:24:97:fd:0d:
         87:f9:d1:c4:fd:ce:fd:b4:89:63:1d:ea:30:30:e0:09:ac:30:
         2f:f5:73:38:1e:d5:fe:93:45:89:05:c7:71:c1:5e:d4:a4:af:
         a2:20:45:fa:97:0c:97:ad:95:a5:96:16:d3:d1:c3:19:55:f1:
         6c:a9:25:c0:c9:42:29:30:1e:de:6f:44:77:85:7d:f3:90:1b:
         63:c3:e5:01:19:6b:0a:0e:75:db:3c:55:f3:c5:d7:5d:e5:b4:
         67:fc:44:57:23:14:b1:8a:8d:83:f8:61:f1:f7:4e:3b:67:95:
         2c:19:a9:16:93:3e:4b:30:8a:bd:3a:db:db:28:fe:13:85:47:
         2b:cd:b3:6a:d0:12:fe:47:5b:b2:80:5d:e2:5d:03:8e:c8:15:
         14:2b:92:de:e4:51:99:b8:b5:4c:da:cb:f7:ce:95:dc:d1:bf:
         09:6c:97:9e:77:4f:99:79:6b:65:aa:e4:df:ae:a8:0f:e4:b2:
         a8:51:f9:07:c3:cf:9b:b9:c0:f3:be:4c:86:da:e0:83:71:b0:
         af:cc:bb:c4:e9:95:4f:e5:a1:c7:6c:a8:eb:80:25:57:22:c0:
         ca:8e:61:b4
-----BEGIN CERTIFICATE-----
MIID/jCCAuagAwIBAgIBATANBgkqhkiG9w0BAQsFADCBjzETMBEGCgmSJomT8ixk
ARkWA2NvbTEXMBUGCgmSJomT8ixkARkWB2V4YW1wbGUxGTAXBgNVBAoMEEV4YW1w
bGUgQ29tIEluYy4xITAfBgNVBAsMGEV4YW1wbGUgQ29tIEluYy4gUm9vdCBDQTEh
MB8GA1UEAwwYRXhhbXBsZSBDb20gSW5jLiBSb290IENBMB4XDTE3MDIyODIwMjcx
OVoXDTI3MDIyODIwMjcxOVowgY8xEzARBgoJkiaJk/IsZAEZFgNjb20xFzAVBgoJ
kiaJk/IsZAEZFgdleGFtcGxlMRkwFwYDVQQKDBBFeGFtcGxlIENvbSBJbmMuMSEw
HwYDVQQLDBhFeGFtcGxlIENvbSBJbmMuIFJvb3QgQ0ExITAfBgNVBAMMGEV4YW1w
bGUgQ29tIEluYy4gUm9vdCBDQTCCASIwDQYJKoZIhvcNAQEBBQADggEPADCCAQoC
ggEBALfmHGfi29ASKs5TrDcy2jcsOkUGRVnnKIaRgCP4H1BAnfTN4aHpGqIWa0dT
mmdB1F6UojAwV/zhN64dCa9CEYGe065hDYo1uMVVQbRBI980jcl64xhV4387lFEl
3aVNU0KEefVCHMiCsMTBcYH6nR/8UeRXTkaG5YFV85xF8z7Zv/EzPjIU9CSo6m5q
EgJPysliZ0LPYqxoOCrwps8gryBDyZzb4wEpuoVR9krQ3H4EMHi/0J7j+K0jqK5I
bFSg5/mzuNoVccA+Tjvgx8rR6wBb8DePf7IyTksLziPGx3knfUf7bNIr5x4kku07
7sK1VQ1BLkE91qpdl5G7WCSv2gMCAwEAAaNjMGEwDgYDVR0PAQH/BAQDAgEGMA8G
A1UdEwEB/wQFMAMBAf8wHQYDVR0OBBYEFAPdf/huMmF/MGmt9qLqzwCVC2YwMB8G
A1UdIwQYMBaAFAPdf/huMmF/MGmt9qLqzwCVC2YwMA0GCSqGSIb3DQEBCwUAA4IB
AQAzSCH6kDiWnnmlpgYb+m2r+dduUeRUCWvv9baej3RvoiSX/Q2H+dHE/c79tIlj
HeowMOAJrDAv9XM4HtX+k0WJBcdxwV7UpK+iIEX6lwyXrZWllhbT0cMZVfFsqSXA
yUIpMB7eb0R3hX3zkBtjw+UBGWsKDnXbPFXzxddd5bRn/ERXIxSxio2D+GHx9047
Z5UsGakWkz5LMIq9OtvbKP4ThUcrzbNq0BL+R1uygF3iXQOOyBUUK5Le5FGZuLVM
2sv3zpXc0b8JbJeed0+ZeWtlquTfrqgP5LKoUfkHw8+bucDzvkyG2uCDcbCvzLvE
6ZVP5aHHbKjrgCVXIsDKjmG0
-----END CERTIFICATE-----
